; Function Attrs: mustprogress nofree norecurse nosync nounwind memory(argmem: readwrite) uwtable
define dso_local noundef i32 @_Z14clipFaceGlobalPK9b3Vector3iRS0_fPS_(ptr nocapture noundef readonly %pVtxIn, i32 noundef %numVertsIn, ptr nocapture noundef nonnull readonly align 16 dereferenceable(16) %planeNormalWS, float noundef %planeEqWS, ptr nocapture noundef writeonly %ppVtxOut) local_unnamed_addr #2 {
entry:
  %arrayidx3.i.i = getelementptr inbounds i8, ptr %planeNormalWS, i64 4
  %arrayidx6.i.i = getelementptr inbounds i8, ptr %planeNormalWS, i64 8
  %cmp68 = icmp sgt i32 %numVertsIn, 0
  br i1 %cmp68, label %for.body.preheader, label %for.end

for.body.preheader:                               ; preds = %entry
  %0 = load float, ptr %arrayidx6.i.i, align 8
  %1 = zext nneg i32 %numVertsIn to i64
  %2 = getelementptr %class.b3Vector3, ptr %pVtxIn, i64 %1
  %firstVertex.sroa.9.0.arrayidx.sroa_idx = getelementptr i8, ptr %2, i64 -8
  %firstVertex.sroa.9.0.copyload = load float, ptr %firstVertex.sroa.9.0.arrayidx.sroa_idx, align 8
  %3 = load float, ptr %planeNormalWS, align 16
  %arrayidx = getelementptr i8, ptr %2, i64 -16
  %4 = load <2 x float>, ptr %arrayidx, align 16
  %5 = load float, ptr %arrayidx3.i.i, align 4
  %6 = extractelement <2 x float> %4, i64 1
  %mul5.i.i = fmul float %6, %5
  %7 = extractelement <2 x float> %4, i64 0
  %8 = tail call float @llvm.fmuladd.f32(float %3, float %7, float %mul5.i.i)
  %9 = tail call noundef float @llvm.fmuladd.f32(float %0, float %firstVertex.sroa.9.0.copyload, float %8)
  %add = fadd float %9, %planeEqWS
  %wide.trip.count = zext nneg i32 %numVertsIn to i64
  br label %for.body

for.body:                                         ; preds = %for.body.preheader, %if.end34
  %indvars.iv = phi i64 [ 0, %for.body.preheader ], [ %indvars.iv.next, %if.end34 ]
  %ds.073 = phi float [ %add, %for.body.preheader ], [ %add5, %if.end34 ]
  %numVertsOut.072 = phi i32 [ 0, %for.body.preheader ], [ %numVertsOut.1, %if.end34 ]
  %firstVertex.sroa.9.069 = phi float [ %firstVertex.sroa.9.0.copyload, %for.body.preheader ], [ %18, %if.end34 ]
  %10 = phi <2 x float> [ %4, %for.body.preheader ], [ %32, %if.end34 ]
  %arrayidx3 = getelementptr inbounds %class.b3Vector3, ptr %pVtxIn, i64 %indvars.iv
  %11 = load <4 x float>, ptr %arrayidx3, align 16
  %12 = load float, ptr %planeNormalWS, align 16
  %13 = load float, ptr %arrayidx3.i.i, align 4
  %14 = extractelement <4 x float> %11, i64 1
  %mul5.i.i25 = fmul float %14, %13
  %15 = extractelement <4 x float> %11, i64 0
  %16 = tail call float @llvm.fmuladd.f32(float %12, float %15, float %mul5.i.i25)
  %17 = load float, ptr %arrayidx6.i.i, align 8
  %18 = extractelement <4 x float> %11, i64 2
  %19 = tail call noundef float @llvm.fmuladd.f32(float %17, float %18, float %16)
  %add5 = fadd float %19, %planeEqWS
  %cmp6 = fcmp olt float %ds.073, 0.000000e+00
  %cmp7 = fcmp olt float %add5, 0.000000e+00
  br i1 %cmp6, label %if.then, label %if.else17

if.then:                                          ; preds = %for.body
  br i1 %cmp7, label %if.then8, label %if.else

if.then8:                                         ; preds = %if.then
  %inc = add nsw i32 %numVertsOut.072, 1
  %idxprom9 = sext i32 %numVertsOut.072 to i64
  %arrayidx10 = getelementptr inbounds %class.b3Vector3, ptr %ppVtxOut, i64 %idxprom9
  store <4 x float> %11, ptr %arrayidx10, align 16
  br label %if.end34

if.else:                                          ; preds = %if.then
  %sub11 = fsub float %ds.073, %add5
  %div = fdiv float %ds.073, %sub11
  %20 = shufflevector <4 x float> %11, <4 x float> poison, <2 x i32> <i32 0, i32 1>
  %21 = fsub <2 x float> %20, %10
  %22 = insertelement <2 x float> poison, float %div, i64 0
  %23 = shufflevector <2 x float> %22, <2 x float> poison, <2 x i32> zeroinitializer
  %24 = tail call <2 x float> @llvm.fmuladd.v2f32(<2 x float> %21, <2 x float> %23, <2 x float> %10)
  %sub8.i = fsub float %18, %firstVertex.sroa.9.069
  %25 = tail call float @llvm.fmuladd.f32(float %sub8.i, float %div, float %firstVertex.sroa.9.069)
  %retval.sroa.3.12.vec.insert.i.i = insertelement <2 x float> <float poison, float 0.000000e+00>, float %25, i64 0
  %inc14 = add nsw i32 %numVertsOut.072, 1
  %idxprom15 = sext i32 %numVertsOut.072 to i64
  %arrayidx16 = getelementptr inbounds %class.b3Vector3, ptr %ppVtxOut, i64 %idxprom15
  store <2 x float> %24, ptr %arrayidx16, align 16
  %ref.tmp.sroa.2.0.arrayidx16.sroa_idx = getelementptr inbounds i8, ptr %arrayidx16, i64 8
  store <2 x float> %retval.sroa.3.12.vec.insert.i.i, ptr %ref.tmp.sroa.2.0.arrayidx16.sroa_idx, align 8
  br label %if.end34

if.else17:                                        ; preds = %for.body
  br i1 %cmp7, label %if.then19, label %if.end34

if.then19:                                        ; preds = %if.else17
  %sub22 = fsub float %ds.073, %add5
  %div23 = fdiv float %ds.073, %sub22
  %26 = shufflevector <4 x float> %11, <4 x float> poison, <2 x i32> <i32 0, i32 1>
  %27 = fsub <2 x float> %26, %10
  %28 = insertelement <2 x float> poison, float %div23, i64 0
  %29 = shufflevector <2 x float> %28, <2 x float> poison, <2 x i32> zeroinitializer
  %30 = tail call <2 x float> @llvm.fmuladd.v2f32(<2 x float> %27, <2 x float> %29, <2 x float> %10)
  %sub8.i34 = fsub float %18, %firstVertex.sroa.9.069
  %31 = tail call float @llvm.fmuladd.f32(float %sub8.i34, float %div23, float %firstVertex.sroa.9.069)
  %retval.sroa.3.12.vec.insert.i.i37 = insertelement <2 x float> <float poison, float 0.000000e+00>, float %31, i64 0
  %idxprom28 = sext i32 %numVertsOut.072 to i64
  %arrayidx29 = getelementptr inbounds %class.b3Vector3, ptr %ppVtxOut, i64 %idxprom28
  store <2 x float> %30, ptr %arrayidx29, align 16
  %ref.tmp20.sroa.2.0.arrayidx29.sroa_idx = getelementptr inbounds i8, ptr %arrayidx29, i64 8
  store <2 x float> %retval.sroa.3.12.vec.insert.i.i37, ptr %ref.tmp20.sroa.2.0.arrayidx29.sroa_idx, align 8
  %inc30 = add nsw i32 %numVertsOut.072, 2
  %arrayidx32 = getelementptr i8, ptr %arrayidx29, i64 16
  store <4 x float> %11, ptr %arrayidx32, align 16
  br label %if.end34

if.end34:                                         ; preds = %if.else17, %if.then19, %if.then8, %if.else
  %numVertsOut.1 = phi i32 [ %inc, %if.then8 ], [ %inc14, %if.else ], [ %inc30, %if.then19 ], [ %numVertsOut.072, %if.else17 ]
  %indvars.iv.next = add nuw nsw i64 %indvars.iv, 1
  %exitcond.not = icmp eq i64 %indvars.iv.next, %wide.trip.count
  %32 = shufflevector <4 x float> %11, <4 x float> poison, <2 x i32> <i32 0, i32 1>
  br i1 %exitcond.not, label %for.end, label %for.body, !llvm.loop !20

for.end:                                          ; preds = %if.end34, %entry
  %numVertsOut.0.lcssa = phi i32 [ 0, %entry ], [ %numVertsOut.1, %if.end34 ]
  ret i32 %numVertsOut.0.lcssa
}